target datalayout = "e-m:e-p270:32:32-p271:32:32-p272:64:64-i64:64-i128:128-f80:128-n8:16:32:64-S128"
target triple = "x86_64-pc-linux-gnu"

%struct.ossl_cc_method_st = type { ptr, ptr, ptr, ptr, ptr, ptr, ptr, ptr, ptr, ptr, ptr, ptr, ptr, ptr }
%struct.quic_conn_id_st = type { i8, [20 x i8] }
%union.bio_addr_st = type { %struct.sockaddr_in6, [84 x i8] }
%struct.sockaddr_in6 = type { i16, i16, i32, %struct.in6_addr, i32 }
%struct.in6_addr = type { %union.anon }
%union.anon = type { [4 x i32] }
%struct.OSSL_TIME = type { i64 }
%struct.quic_channel_st = type { ptr, %struct.anon, %struct.anon.0, ptr, ptr, ptr, ptr, ptr, ptr, ptr, i64, %union.bio_addr_st, ptr, ptr, ptr, %struct.quic_txfc_st, %struct.quic_rxfc_st, [3 x %struct.quic_rxfc_st], %struct.quic_rxfc_st, %struct.quic_rxfc_st, %struct.quic_stream_map_st, %struct.ossl_statm_st, ptr, ptr, ptr, ptr, ptr, ptr, ptr, ptr, [3 x ptr], [3 x ptr], %struct.quic_conn_id_st, %struct.quic_conn_id_st, %struct.quic_conn_id_st, %struct.quic_conn_id_st, %struct.quic_conn_id_st, %struct.quic_conn_id_st, i64, i64, i64, i64, i64, i64, i64, i64, i64, i64, i8, i16, ptr, i64, i64, i64, i64, i64, i64, i64, i64, i64, i64, i64, i64, i64, %struct.quic_terminate_cause_st, %struct.OSSL_TIME, %struct.OSSL_TIME, %struct.OSSL_TIME, %struct.OSSL_TIME, %struct.OSSL_TIME, i64, i64, i64, ptr, ptr, i64, ptr }
%struct.anon = type { ptr, ptr }
%struct.anon.0 = type { ptr, ptr }
%struct.quic_txfc_st = type { ptr, i64, i64, i8 }
%struct.quic_rxfc_st = type { i64, i64, i64, i64, i64, i64, i64, %struct.OSSL_TIME, ptr, ptr, ptr, i8, i8, i8, i8 }
%struct.quic_stream_map_st = type { ptr, %struct.quic_stream_list_node_st, %struct.quic_stream_list_node_st, %struct.quic_stream_list_node_st, i64, i64, i64, i64, i64, ptr, ptr, ptr, ptr, ptr, i32 }
%struct.quic_stream_list_node_st = type { ptr, ptr }
%struct.ossl_statm_st = type { %struct.OSSL_TIME, %struct.OSSL_TIME, %struct.OSSL_TIME, %struct.OSSL_TIME, i8 }
%struct.quic_terminate_cause_st = type { i64, i64, ptr, i64, i8 }
%struct.quic_port_st = type { ptr, %struct.anon.1, ptr, ptr, ptr, ptr, ptr, ptr, %struct.ossl_list_st_ch, %struct.ossl_list_st_incoming_ch, ptr, ptr, ptr, ptr, i8, i8, i16, ptr }
%struct.anon.1 = type { ptr, ptr }
%struct.ossl_list_st_ch = type { ptr, ptr, i64 }
%struct.ossl_list_st_incoming_ch = type { ptr, ptr, i64 }

@.str = private unnamed_addr constant [35 x i8] c"../openssl/ssl/quic/quic_channel.c\00", align 1

; Function Attrs: inlinehint nounwind uwtable
define internal void @ossl_list_ch_remove(ptr noundef %0, ptr noundef %1) #4 {
  %3 = alloca ptr, align 8
  %4 = alloca ptr, align 8
  store ptr %0, ptr %3, align 8, !tbaa !287
  store ptr %1, ptr %4, align 8, !tbaa !3
  %5 = load ptr, ptr %3, align 8, !tbaa !287
  %6 = getelementptr inbounds nuw %struct.ossl_list_st_ch, ptr %5, i32 0, i32 0
  %7 = load ptr, ptr %6, align 8, !tbaa !292
  %8 = load ptr, ptr %4, align 8, !tbaa !3
  %9 = icmp eq ptr %7, %8
  br i1 %9, label %10, label %17

10:                                               ; preds = %2
  %11 = load ptr, ptr %4, align 8, !tbaa !3
  %12 = getelementptr inbounds nuw %struct.quic_channel_st, ptr %11, i32 0, i32 1
  %13 = getelementptr inbounds nuw %struct.anon, ptr %12, i32 0, i32 0
  %14 = load ptr, ptr %13, align 8, !tbaa !290
  %15 = load ptr, ptr %3, align 8, !tbaa !287
  %16 = getelementptr inbounds nuw %struct.ossl_list_st_ch, ptr %15, i32 0, i32 0
  store ptr %14, ptr %16, align 8, !tbaa !292
  br label %17

17:                                               ; preds = %10, %2
  %18 = load ptr, ptr %3, align 8, !tbaa !287
  %19 = getelementptr inbounds nuw %struct.ossl_list_st_ch, ptr %18, i32 0, i32 1
  %20 = load ptr, ptr %19, align 8, !tbaa !289
  %21 = load ptr, ptr %4, align 8, !tbaa !3
  %22 = icmp eq ptr %20, %21
  br i1 %22, label %23, label %30

23:                                               ; preds = %17
  %24 = load ptr, ptr %4, align 8, !tbaa !3
  %25 = getelementptr inbounds nuw %struct.quic_channel_st, ptr %24, i32 0, i32 1
  %26 = getelementptr inbounds nuw %struct.anon, ptr %25, i32 0, i32 1
  %27 = load ptr, ptr %26, align 8, !tbaa !291
  %28 = load ptr, ptr %3, align 8, !tbaa !287
  %29 = getelementptr inbounds nuw %struct.ossl_list_st_ch, ptr %28, i32 0, i32 1
  store ptr %27, ptr %29, align 8, !tbaa !289
  br label %30

30:                                               ; preds = %23, %17
  %31 = load ptr, ptr %4, align 8, !tbaa !3
  %32 = getelementptr inbounds nuw %struct.quic_channel_st, ptr %31, i32 0, i32 1
  %33 = getelementptr inbounds nuw %struct.anon, ptr %32, i32 0, i32 1
  %34 = load ptr, ptr %33, align 8, !tbaa !291
  %35 = icmp ne ptr %34, null
  br i1 %35, label %36, label %47

36:                                               ; preds = %30
  %37 = load ptr, ptr %4, align 8, !tbaa !3
  %38 = getelementptr inbounds nuw %struct.quic_channel_st, ptr %37, i32 0, i32 1
  %39 = getelementptr inbounds nuw %struct.anon, ptr %38, i32 0, i32 0
  %40 = load ptr, ptr %39, align 8, !tbaa !290
  %41 = load ptr, ptr %4, align 8, !tbaa !3
  %42 = getelementptr inbounds nuw %struct.quic_channel_st, ptr %41, i32 0, i32 1
  %43 = getelementptr inbounds nuw %struct.anon, ptr %42, i32 0, i32 1
  %44 = load ptr, ptr %43, align 8, !tbaa !291
  %45 = getelementptr inbounds nuw %struct.quic_channel_st, ptr %44, i32 0, i32 1
  %46 = getelementptr inbounds nuw %struct.anon, ptr %45, i32 0, i32 0
  store ptr %40, ptr %46, align 8, !tbaa !290
  br label %47

47:                                               ; preds = %36, %30
  %48 = load ptr, ptr %4, align 8, !tbaa !3
  %49 = getelementptr inbounds nuw %struct.quic_channel_st, ptr %48, i32 0, i32 1
  %50 = getelementptr inbounds nuw %struct.anon, ptr %49, i32 0, i32 0
  %51 = load ptr, ptr %50, align 8, !tbaa !290
  %52 = icmp ne ptr %51, null
  br i1 %52, label %53, label %64

53:                                               ; preds = %47
  %54 = load ptr, ptr %4, align 8, !tbaa !3
  %55 = getelementptr inbounds nuw %struct.quic_channel_st, ptr %54, i32 0, i32 1
  %56 = getelementptr inbounds nuw %struct.anon, ptr %55, i32 0, i32 1
  %57 = load ptr, ptr %56, align 8, !tbaa !291
  %58 = load ptr, ptr %4, align 8, !tbaa !3
  %59 = getelementptr inbounds nuw %struct.quic_channel_st, ptr %58, i32 0, i32 1
  %60 = getelementptr inbounds nuw %struct.anon, ptr %59, i32 0, i32 0
  %61 = load ptr, ptr %60, align 8, !tbaa !290
  %62 = getelementptr inbounds nuw %struct.quic_channel_st, ptr %61, i32 0, i32 1
  %63 = getelementptr inbounds nuw %struct.anon, ptr %62, i32 0, i32 1
  store ptr %57, ptr %63, align 8, !tbaa !291
  br label %64

64:                                               ; preds = %53, %47
  %65 = load ptr, ptr %3, align 8, !tbaa !287
  %66 = getelementptr inbounds nuw %struct.ossl_list_st_ch, ptr %65, i32 0, i32 2
  %67 = load i64, ptr %66, align 8, !tbaa !293
  %68 = add i64 %67, -1
  store i64 %68, ptr %66, align 8, !tbaa !293
  %69 = load ptr, ptr %4, align 8, !tbaa !3
  %70 = getelementptr inbounds nuw %struct.quic_channel_st, ptr %69, i32 0, i32 1
  call void @llvm.memset.p0.i64(ptr align 8 %70, i8 0, i64 16, i1 false)
  ret void
}

; Function Attrs: nounwind uwtable
define internal void @ch_cleanup(ptr noundef %0) #0 {
  %2 = alloca ptr, align 8
  %3 = alloca i32, align 4
  store ptr %0, ptr %2, align 8, !tbaa !3
  call void @llvm.lifetime.start.p0(i64 4, ptr %3) #9
  %4 = load ptr, ptr %2, align 8, !tbaa !3
  %5 = getelementptr inbounds nuw %struct.quic_channel_st, ptr %4, i32 0, i32 24
  %6 = load ptr, ptr %5, align 8, !tbaa !87
  %7 = icmp ne ptr %6, null
  br i1 %7, label %8, label %22

8:                                                ; preds = %1
  store i32 0, ptr %3, align 4, !tbaa !80
  br label %9

9:                                                ; preds = %18, %8
  %10 = load i32, ptr %3, align 4, !tbaa !80
  %11 = icmp ult i32 %10, 3
  br i1 %11, label %12, label %21

12:                                               ; preds = %9
  %13 = load ptr, ptr %2, align 8, !tbaa !3
  %14 = getelementptr inbounds nuw %struct.quic_channel_st, ptr %13, i32 0, i32 24
  %15 = load ptr, ptr %14, align 8, !tbaa !87
  %16 = load i32, ptr %3, align 4, !tbaa !80
  %17 = call i32 @ossl_ackm_on_pkt_space_discarded(ptr noundef %15, i32 noundef %16)
  br label %18

18:                                               ; preds = %12
  %19 = load i32, ptr %3, align 4, !tbaa !80
  %20 = add i32 %19, 1
  store i32 %20, ptr %3, align 4, !tbaa !80
  br label %9, !llvm.loop !162

21:                                               ; preds = %9
  br label %22

22:                                               ; preds = %21, %1
  %23 = load ptr, ptr %2, align 8, !tbaa !3
  %24 = getelementptr inbounds nuw %struct.quic_channel_st, ptr %23, i32 0, i32 5
  %25 = load ptr, ptr %24, align 8, !tbaa !45
  %26 = load ptr, ptr %2, align 8, !tbaa !3
  %27 = call i32 @ossl_quic_lcidm_cull(ptr noundef %25, ptr noundef %26)
  %28 = load ptr, ptr %2, align 8, !tbaa !3
  %29 = getelementptr inbounds nuw %struct.quic_channel_st, ptr %28, i32 0, i32 6
  %30 = load ptr, ptr %29, align 8, !tbaa !46
  %31 = load ptr, ptr %2, align 8, !tbaa !3
  %32 = call i32 @ossl_quic_srtm_cull(ptr noundef %30, ptr noundef %31)
  %33 = load ptr, ptr %2, align 8, !tbaa !3
  %34 = getelementptr inbounds nuw %struct.quic_channel_st, ptr %33, i32 0, i32 12
  %35 = load ptr, ptr %34, align 8, !tbaa !112
  call void @ossl_quic_tx_packetiser_free(ptr noundef %35)
  %36 = load ptr, ptr %2, align 8, !tbaa !3
  %37 = getelementptr inbounds nuw %struct.quic_channel_st, ptr %36, i32 0, i32 13
  %38 = load ptr, ptr %37, align 8, !tbaa !75
  call void @ossl_quic_txpim_free(ptr noundef %38)
  %39 = load ptr, ptr %2, align 8, !tbaa !3
  %40 = getelementptr inbounds nuw %struct.quic_channel_st, ptr %39, i32 0, i32 14
  %41 = load ptr, ptr %40, align 8, !tbaa !76
  call void @ossl_quic_cfq_free(ptr noundef %41)
  %42 = load ptr, ptr %2, align 8, !tbaa !3
  %43 = getelementptr inbounds nuw %struct.quic_channel_st, ptr %42, i32 0, i32 25
  %44 = load ptr, ptr %43, align 8, !tbaa !74
  call void @ossl_qtx_free(ptr noundef %44)
  %45 = load ptr, ptr %2, align 8, !tbaa !3
  %46 = getelementptr inbounds nuw %struct.quic_channel_st, ptr %45, i32 0, i32 22
  %47 = load ptr, ptr %46, align 8, !tbaa !86
  %48 = icmp ne ptr %47, null
  br i1 %48, label %49, label %58

49:                                               ; preds = %22
  %50 = load ptr, ptr %2, align 8, !tbaa !3
  %51 = getelementptr inbounds nuw %struct.quic_channel_st, ptr %50, i32 0, i32 23
  %52 = load ptr, ptr %51, align 8, !tbaa !83
  %53 = getelementptr inbounds nuw %struct.ossl_cc_method_st, ptr %52, i32 0, i32 1
  %54 = load ptr, ptr %53, align 8, !tbaa !163
  %55 = load ptr, ptr %2, align 8, !tbaa !3
  %56 = getelementptr inbounds nuw %struct.quic_channel_st, ptr %55, i32 0, i32 22
  %57 = load ptr, ptr %56, align 8, !tbaa !86
  call void %54(ptr noundef %57)
  br label %58

58:                                               ; preds = %49, %22
  %59 = load ptr, ptr %2, align 8, !tbaa !3
  %60 = getelementptr inbounds nuw %struct.quic_channel_st, ptr %59, i32 0, i32 72
  %61 = load i64, ptr %60, align 8
  %62 = lshr i64 %61, 12
  %63 = and i64 %62, 1
  %64 = trunc i64 %63 to i32
  %65 = icmp ne i32 %64, 0
  br i1 %65, label %66, label %69

66:                                               ; preds = %58
  %67 = load ptr, ptr %2, align 8, !tbaa !3
  %68 = getelementptr inbounds nuw %struct.quic_channel_st, ptr %67, i32 0, i32 21
  call void @ossl_statm_destroy(ptr noundef %68)
  br label %69

69:                                               ; preds = %66, %58
  %70 = load ptr, ptr %2, align 8, !tbaa !3
  %71 = getelementptr inbounds nuw %struct.quic_channel_st, ptr %70, i32 0, i32 24
  %72 = load ptr, ptr %71, align 8, !tbaa !87
  call void @ossl_ackm_free(ptr noundef %72)
  %73 = load ptr, ptr %2, align 8, !tbaa !3
  %74 = getelementptr inbounds nuw %struct.quic_channel_st, ptr %73, i32 0, i32 72
  %75 = load i64, ptr %74, align 8
  %76 = lshr i64 %75, 13
  %77 = and i64 %76, 1
  %78 = trunc i64 %77 to i32
  %79 = icmp ne i32 %78, 0
  br i1 %79, label %80, label %83

80:                                               ; preds = %69
  %81 = load ptr, ptr %2, align 8, !tbaa !3
  %82 = getelementptr inbounds nuw %struct.quic_channel_st, ptr %81, i32 0, i32 20
  call void @ossl_quic_stream_map_cleanup(ptr noundef %82)
  br label %83

83:                                               ; preds = %80, %69
  store i32 0, ptr %3, align 4, !tbaa !80
  br label %84

84:                                               ; preds = %100, %83
  %85 = load i32, ptr %3, align 4, !tbaa !80
  %86 = icmp ult i32 %85, 3
  br i1 %86, label %87, label %103

87:                                               ; preds = %84
  %88 = load ptr, ptr %2, align 8, !tbaa !3
  %89 = getelementptr inbounds nuw %struct.quic_channel_st, ptr %88, i32 0, i32 30
  %90 = load i32, ptr %3, align 4, !tbaa !80
  %91 = zext i32 %90 to i64
  %92 = getelementptr inbounds nuw [3 x ptr], ptr %89, i64 0, i64 %91
  %93 = load ptr, ptr %92, align 8, !tbaa !109
  call void @ossl_quic_sstream_free(ptr noundef %93)
  %94 = load ptr, ptr %2, align 8, !tbaa !3
  %95 = getelementptr inbounds nuw %struct.quic_channel_st, ptr %94, i32 0, i32 31
  %96 = load i32, ptr %3, align 4, !tbaa !80
  %97 = zext i32 %96 to i64
  %98 = getelementptr inbounds nuw [3 x ptr], ptr %95, i64 0, i64 %97
  %99 = load ptr, ptr %98, align 8, !tbaa !120
  call void @ossl_quic_rstream_free(ptr noundef %99)
  br label %100

100:                                              ; preds = %87
  %101 = load i32, ptr %3, align 4, !tbaa !80
  %102 = add i32 %101, 1
  store i32 %102, ptr %3, align 4, !tbaa !80
  br label %84, !llvm.loop !164

103:                                              ; preds = %84
  %104 = load ptr, ptr %2, align 8, !tbaa !3
  %105 = getelementptr inbounds nuw %struct.quic_channel_st, ptr %104, i32 0, i32 50
  %106 = load ptr, ptr %105, align 8, !tbaa !165
  call void @ossl_qrx_pkt_release(ptr noundef %106)
  %107 = load ptr, ptr %2, align 8, !tbaa !3
  %108 = getelementptr inbounds nuw %struct.quic_channel_st, ptr %107, i32 0, i32 50
  store ptr null, ptr %108, align 8, !tbaa !165
  %109 = load ptr, ptr %2, align 8, !tbaa !3
  %110 = getelementptr inbounds nuw %struct.quic_channel_st, ptr %109, i32 0, i32 3
  %111 = load ptr, ptr %110, align 8, !tbaa !142
  call void @ossl_quic_tls_free(ptr noundef %111)
  %112 = load ptr, ptr %2, align 8, !tbaa !3
  %113 = getelementptr inbounds nuw %struct.quic_channel_st, ptr %112, i32 0, i32 26
  %114 = load ptr, ptr %113, align 8, !tbaa !119
  call void @ossl_qrx_free(ptr noundef %114)
  %115 = load ptr, ptr %2, align 8, !tbaa !3
  %116 = getelementptr inbounds nuw %struct.quic_channel_st, ptr %115, i32 0, i32 8
  %117 = load ptr, ptr %116, align 8, !tbaa !166
  call void @CRYPTO_free(ptr noundef %117, ptr noundef @.str, i32 noundef 404)
  %118 = load ptr, ptr %2, align 8, !tbaa !3
  %119 = getelementptr inbounds nuw %struct.quic_channel_st, ptr %118, i32 0, i32 64
  %120 = getelementptr inbounds nuw %struct.quic_terminate_cause_st, ptr %119, i32 0, i32 2
  %121 = load ptr, ptr %120, align 8, !tbaa !167
  call void @CRYPTO_free(ptr noundef %121, ptr noundef @.str, i32 noundef 405)
  %122 = load ptr, ptr %2, align 8, !tbaa !3
  %123 = getelementptr inbounds nuw %struct.quic_channel_st, ptr %122, i32 0, i32 73
  %124 = load ptr, ptr %123, align 8, !tbaa !168
  call void @OSSL_ERR_STATE_free(ptr noundef %124)
  %125 = load ptr, ptr %2, align 8, !tbaa !3
  %126 = getelementptr inbounds nuw %struct.quic_channel_st, ptr %125, i32 0, i32 74
  %127 = load ptr, ptr %126, align 8, !tbaa !169
  call void @CRYPTO_free(ptr noundef %127, ptr noundef @.str, i32 noundef 407)
  %128 = load ptr, ptr %2, align 8, !tbaa !3
  %129 = getelementptr inbounds nuw %struct.quic_channel_st, ptr %128, i32 0, i32 9
  %130 = load ptr, ptr %129, align 8, !tbaa !170
  call void @CRYPTO_free(ptr noundef %130, ptr noundef @.str, i32 noundef 408)
  %131 = load ptr, ptr %2, align 8, !tbaa !3
  %132 = getelementptr inbounds nuw %struct.quic_channel_st, ptr %131, i32 0, i32 72
  %133 = load i64, ptr %132, align 8
  %134 = lshr i64 %133, 40
  %135 = and i64 %134, 1
  %136 = trunc i64 %135 to i32
  %137 = icmp ne i32 %136, 0
  br i1 %137, label %138, label %149

138:                                              ; preds = %103
  %139 = load ptr, ptr %2, align 8, !tbaa !3
  %140 = getelementptr inbounds nuw %struct.quic_channel_st, ptr %139, i32 0, i32 0
  %141 = load ptr, ptr %140, align 8, !tbaa !8
  %142 = getelementptr inbounds nuw %struct.quic_port_st, ptr %141, i32 0, i32 8
  %143 = load ptr, ptr %2, align 8, !tbaa !3
  call void @ossl_list_ch_remove(ptr noundef %142, ptr noundef %143)
  %144 = load ptr, ptr %2, align 8, !tbaa !3
  %145 = getelementptr inbounds nuw %struct.quic_channel_st, ptr %144, i32 0, i32 72
  %146 = load i64, ptr %145, align 8
  %147 = and i64 %146, -1099511627777
  %148 = or i64 %147, 0
  store i64 %148, ptr %145, align 8
  br label %149

149:                                              ; preds = %138, %103
  %150 = load ptr, ptr %2, align 8, !tbaa !3
  %151 = getelementptr inbounds nuw %struct.quic_channel_st, ptr %150, i32 0, i32 7
  %152 = load ptr, ptr %151, align 8, !tbaa !171
  %153 = icmp ne ptr %152, null
  br i1 %153, label %154, label %159

154:                                              ; preds = %149
  %155 = load ptr, ptr %2, align 8, !tbaa !3
  %156 = getelementptr inbounds nuw %struct.quic_channel_st, ptr %155, i32 0, i32 7
  %157 = load ptr, ptr %156, align 8, !tbaa !171
  %158 = call i32 @ossl_qlog_flush(ptr noundef %157)
  br label %159

159:                                              ; preds = %154, %149
  %160 = load ptr, ptr %2, align 8, !tbaa !3
  %161 = getelementptr inbounds nuw %struct.quic_channel_st, ptr %160, i32 0, i32 76
  %162 = load ptr, ptr %161, align 8, !tbaa !161
  call void @CRYPTO_free(ptr noundef %162, ptr noundef @.str, i32 noundef 419)
  %163 = load ptr, ptr %2, align 8, !tbaa !3
  %164 = getelementptr inbounds nuw %struct.quic_channel_st, ptr %163, i32 0, i32 7
  %165 = load ptr, ptr %164, align 8, !tbaa !171
  call void @ossl_qlog_free(ptr noundef %165)
  call void @llvm.lifetime.end.p0(i64 4, ptr %3) #9
  ret void
}