; Function Attrs: nounwind uwtable
define internal fastcc void @ch_cleanup(ptr noundef %0) unnamed_addr #0 {
  %2 = getelementptr inbounds nuw i8, ptr %0, i64 1048
  %3 = load ptr, ptr %2, align 8, !tbaa !84
  %.not = icmp eq ptr %3, null
  br i1 %.not, label %.loopexit, label %.preheader

.preheader:                                       ; preds = %1, %.preheader
  %.050 = phi i32 [ %6, %.preheader ], [ 0, %1 ]
  %4 = load ptr, ptr %2, align 8, !tbaa !84
  %5 = tail call i32 @ossl_ackm_on_pkt_space_discarded(ptr noundef %4, i32 noundef %.050) #15
  %6 = add nuw nsw i32 %.050, 1
  %exitcond.not = icmp eq i32 %6, 3
  br i1 %exitcond.not, label %.loopexit, label %.preheader, !llvm.loop !162

.loopexit:                                        ; preds = %.preheader, %1
  %7 = getelementptr inbounds nuw i8, ptr %0, i64 56
  %8 = load ptr, ptr %7, align 8, !tbaa !44
  %9 = tail call i32 @ossl_quic_lcidm_cull(ptr noundef %8, ptr noundef nonnull %0) #15
  %10 = getelementptr inbounds nuw i8, ptr %0, i64 64
  %11 = load ptr, ptr %10, align 8, !tbaa !45
  %12 = tail call i32 @ossl_quic_srtm_cull(ptr noundef %11, ptr noundef nonnull %0) #15
  %13 = getelementptr inbounds nuw i8, ptr %0, i64 216
  %14 = load ptr, ptr %13, align 8, !tbaa !109
  tail call void @ossl_quic_tx_packetiser_free(ptr noundef %14) #15
  %15 = getelementptr inbounds nuw i8, ptr %0, i64 224
  %16 = load ptr, ptr %15, align 8, !tbaa !73
  tail call void @ossl_quic_txpim_free(ptr noundef %16) #15
  %17 = getelementptr inbounds nuw i8, ptr %0, i64 232
  %18 = load ptr, ptr %17, align 8, !tbaa !74
  tail call void @ossl_quic_cfq_free(ptr noundef %18) #15
  %19 = getelementptr inbounds nuw i8, ptr %0, i64 1056
  %20 = load ptr, ptr %19, align 8, !tbaa !72
  tail call void @ossl_qtx_free(ptr noundef %20) #15
  %21 = getelementptr inbounds nuw i8, ptr %0, i64 1032
  %22 = load ptr, ptr %21, align 8, !tbaa !83
  %.not45 = icmp eq ptr %22, null
  br i1 %.not45, label %28, label %23

23:                                               ; preds = %.loopexit
  %24 = getelementptr inbounds nuw i8, ptr %0, i64 1040
  %25 = load ptr, ptr %24, align 8, !tbaa !80
  %26 = getelementptr inbounds nuw i8, ptr %25, i64 8
  %27 = load ptr, ptr %26, align 8, !tbaa !163
  tail call void %27(ptr noundef nonnull %22) #15
  br label %28

28:                                               ; preds = %23, %.loopexit
  %29 = getelementptr inbounds nuw i8, ptr %0, i64 1568
  %30 = load i64, ptr %29, align 8
  %31 = and i64 %30, 4096
  %.not46 = icmp eq i64 %31, 0
  br i1 %.not46, label %34, label %32

32:                                               ; preds = %28
  %33 = getelementptr inbounds nuw i8, ptr %0, i64 992
  tail call void @ossl_statm_destroy(ptr noundef nonnull %33) #15
  br label %34

34:                                               ; preds = %32, %28
  %35 = load ptr, ptr %2, align 8, !tbaa !84
  tail call void @ossl_ackm_free(ptr noundef %35) #15
  %36 = load i64, ptr %29, align 8
  %37 = and i64 %36, 8192
  %.not47 = icmp eq i64 %37, 0
  br i1 %.not47, label %40, label %38

38:                                               ; preds = %34
  %39 = getelementptr inbounds nuw i8, ptr %0, i64 848
  tail call void @ossl_quic_stream_map_cleanup(ptr noundef nonnull %39) #15
  br label %40

40:                                               ; preds = %38, %34
  %41 = getelementptr inbounds nuw i8, ptr %0, i64 1096
  %42 = getelementptr inbounds nuw i8, ptr %0, i64 1120
  br label %43

43:                                               ; preds = %40, %43
  %indvars.iv = phi i64 [ 0, %40 ], [ %indvars.iv.next, %43 ]
  %44 = getelementptr inbounds nuw [3 x ptr], ptr %41, i64 0, i64 %indvars.iv
  %45 = load ptr, ptr %44, align 8, !tbaa !106
  tail call void @ossl_quic_sstream_free(ptr noundef %45) #15
  %46 = getelementptr inbounds nuw [3 x ptr], ptr %42, i64 0, i64 %indvars.iv
  %47 = load ptr, ptr %46, align 8, !tbaa !118
  tail call void @ossl_quic_rstream_free(ptr noundef %47) #15
  %indvars.iv.next = add nuw nsw i64 %indvars.iv, 1
  %exitcond53.not = icmp eq i64 %indvars.iv.next, 3
  br i1 %exitcond53.not, label %48, label %43, !llvm.loop !164

48:                                               ; preds = %43
  %49 = getelementptr inbounds nuw i8, ptr %0, i64 1360
  %50 = load ptr, ptr %49, align 8, !tbaa !165
  tail call void @ossl_qrx_pkt_release(ptr noundef %50) #15
  store ptr null, ptr %49, align 8, !tbaa !165
  %51 = getelementptr inbounds nuw i8, ptr %0, i64 40
  %52 = load ptr, ptr %51, align 8, !tbaa !139
  tail call void @ossl_quic_tls_free(ptr noundef %52) #15
  %53 = getelementptr inbounds nuw i8, ptr %0, i64 1064
  %54 = load ptr, ptr %53, align 8, !tbaa !116
  tail call void @ossl_qrx_free(ptr noundef %54) #15
  %55 = getelementptr inbounds nuw i8, ptr %0, i64 80
  %56 = load ptr, ptr %55, align 8, !tbaa !166
  tail call void @CRYPTO_free(ptr noundef %56, ptr noundef nonnull @.str, i32 noundef 404) #15
  %57 = getelementptr inbounds nuw i8, ptr %0, i64 1488
  %58 = load ptr, ptr %57, align 8, !tbaa !167
  tail call void @CRYPTO_free(ptr noundef %58, ptr noundef nonnull @.str, i32 noundef 405) #15
  %59 = getelementptr inbounds nuw i8, ptr %0, i64 1576
  %60 = load ptr, ptr %59, align 8, !tbaa !168
  tail call void @OSSL_ERR_STATE_free(ptr noundef %60) #15
  %61 = getelementptr inbounds nuw i8, ptr %0, i64 1584
  %62 = load ptr, ptr %61, align 8, !tbaa !169
  tail call void @CRYPTO_free(ptr noundef %62, ptr noundef nonnull @.str, i32 noundef 407) #15
  %63 = getelementptr inbounds nuw i8, ptr %0, i64 88
  %64 = load ptr, ptr %63, align 8, !tbaa !170
  tail call void @CRYPTO_free(ptr noundef %64, ptr noundef nonnull @.str, i32 noundef 408) #15
  %65 = load i64, ptr %29, align 8
  %66 = and i64 %65, 1099511627776
  %.not48 = icmp eq i64 %66, 0
  br i1 %.not48, label %93, label %67

67:                                               ; preds = %48
  %68 = load ptr, ptr %0, align 8, !tbaa !3
  %69 = getelementptr inbounds nuw i8, ptr %68, i64 72
  %70 = load ptr, ptr %69, align 8, !tbaa !151
  %71 = icmp eq ptr %70, %0
  br i1 %71, label %72, label %75

72:                                               ; preds = %67
  %73 = getelementptr inbounds nuw i8, ptr %0, i64 8
  %74 = load ptr, ptr %73, align 8, !tbaa !149
  store ptr %74, ptr %69, align 8, !tbaa !151
  br label %75

75:                                               ; preds = %72, %67
  %76 = getelementptr inbounds nuw i8, ptr %68, i64 80
  %77 = load ptr, ptr %76, align 8, !tbaa !148
  %78 = icmp eq ptr %77, %0
  %79 = getelementptr inbounds nuw i8, ptr %0, i64 16
  %80 = load ptr, ptr %79, align 8, !tbaa !150
  br i1 %78, label %81, label %._crit_edge.i

81:                                               ; preds = %75
  store ptr %80, ptr %76, align 8, !tbaa !148
  br label %._crit_edge.i

._crit_edge.i:                                    ; preds = %81, %75
  %82 = getelementptr inbounds nuw i8, ptr %0, i64 8
  %.not.i = icmp eq ptr %80, null
  %.pre19.i = load ptr, ptr %82, align 8, !tbaa !149
  br i1 %.not.i, label %85, label %83

83:                                               ; preds = %._crit_edge.i
  %84 = getelementptr inbounds nuw i8, ptr %80, i64 8
  store ptr %.pre19.i, ptr %84, align 8, !tbaa !149
  br label %85

85:                                               ; preds = %83, %._crit_edge.i
  %.not18.i = icmp eq ptr %.pre19.i, null
  br i1 %.not18.i, label %ossl_list_ch_remove.exit, label %86

86:                                               ; preds = %85
  %87 = getelementptr inbounds nuw i8, ptr %.pre19.i, i64 16
  store ptr %80, ptr %87, align 8, !tbaa !150
  br label %ossl_list_ch_remove.exit

ossl_list_ch_remove.exit:                         ; preds = %85, %86
  %88 = getelementptr inbounds nuw i8, ptr %68, i64 88
  %89 = load i64, ptr %88, align 8, !tbaa !152
  %90 = add i64 %89, -1
  store i64 %90, ptr %88, align 8, !tbaa !152
  tail call void @llvm.memset.p0.i64(ptr noundef nonnull align 8 dereferenceable(16) %82, i8 0, i64 16, i1 false)
  %91 = load i64, ptr %29, align 8
  %92 = and i64 %91, -1099511627777
  store i64 %92, ptr %29, align 8
  br label %93

93:                                               ; preds = %ossl_list_ch_remove.exit, %48
  %94 = getelementptr inbounds nuw i8, ptr %0, i64 72
  %95 = load ptr, ptr %94, align 8, !tbaa !171
  %.not49 = icmp eq ptr %95, null
  br i1 %.not49, label %98, label %96

96:                                               ; preds = %93
  %97 = tail call i32 @ossl_qlog_flush(ptr noundef nonnull %95) #15
  br label %98

98:                                               ; preds = %96, %93
  %99 = getelementptr inbounds nuw i8, ptr %0, i64 1600
  %100 = load ptr, ptr %99, align 8, !tbaa !161
  tail call void @CRYPTO_free(ptr noundef %100, ptr noundef nonnull @.str, i32 noundef 419) #15
  %101 = load ptr, ptr %94, align 8, !tbaa !171
  tail call void @ossl_qlog_free(ptr noundef %101) #15
  ret void
}